; Function Attrs: mustprogress nofree norecurse nosync nounwind willreturn memory(argmem: readwrite) uwtable
define void @u_setMutexFunctions_77(ptr noundef readnone captures(none) %0, ptr noundef readnone captures(none) %1, ptr noundef readnone captures(none) %2, ptr noundef readnone captures(none) %3, ptr noundef readnone captures(none) %4, ptr noundef captures(none) %5) local_unnamed_addr #7 {
  %7 = load i32, ptr %5, align 4, !tbaa !26
  %8 = icmp sgt i32 %7, 0
  br i1 %8, label %10, label %9

9:                                                ; preds = %6
  store i32 16, ptr %5, align 4, !tbaa !26
  br label %10

10:                                               ; preds = %9, %6
  ret void
}